; Function Attrs: mustprogress uwtable
define void @_ZN7Imf_3_46HeaderC2ERKS0_(ptr noundef nonnull align 8 dereferenceable(49) initializes((0, 24)) %0, ptr noundef nonnull align 8 dereferenceable(49) %1) unnamed_addr #5 align 2 personality ptr @__gxx_personality_v0 {
  %3 = getelementptr inbounds nuw i8, ptr %0, i64 8
  %4 = getelementptr inbounds nuw i8, ptr %0, i64 24
  tail call void @llvm.memset.p0.i64(ptr noundef nonnull align 8 dereferenceable(24) %0, i8 0, i64 24, i1 false)
  store ptr %3, ptr %4, align 8, !tbaa !3
  %5 = getelementptr inbounds nuw i8, ptr %0, i64 32
  store ptr %3, ptr %5, align 8, !tbaa !12
  %6 = getelementptr inbounds nuw i8, ptr %0, i64 40
  store i64 0, ptr %6, align 8, !tbaa !13
  %7 = getelementptr inbounds nuw i8, ptr %0, i64 48
  %8 = getelementptr inbounds nuw i8, ptr %1, i64 48
  %9 = load i8, ptr %8, align 8, !tbaa !14, !range !36, !noundef !37
  store i8 %9, ptr %7, align 8, !tbaa !14
  %10 = getelementptr inbounds nuw i8, ptr %1, i64 24
  %11 = load ptr, ptr %10, align 8, !tbaa !3
  %12 = getelementptr inbounds nuw i8, ptr %1, i64 8
  %.not12 = icmp eq ptr %11, %12
  br i1 %.not12, label %._crit_edge, label %.lr.ph

._crit_edge:                                      ; preds = %16, %2
  invoke fastcc void @_ZN7Imf_3_412_GLOBAL__N_121copyCompressionRecordEPNS_6HeaderEPKS1_(ptr noundef %0, ptr noundef %1)
          to label %20 unwind label %21

.lr.ph:                                           ; preds = %2, %16
  %.sroa.08.013 = phi ptr [ %17, %16 ], [ %11, %2 ]
  %13 = getelementptr inbounds nuw i8, ptr %.sroa.08.013, i64 32
  %14 = getelementptr inbounds nuw i8, ptr %.sroa.08.013, i64 288
  %15 = load ptr, ptr %14, align 8, !tbaa !38
  invoke void @_ZN7Imf_3_46Header6insertEPKcRKNS_9AttributeE(ptr noundef nonnull align 8 dereferenceable(49) %0, ptr noundef nonnull %13, ptr noundef nonnull align 8 dereferenceable(8) %15)
          to label %16 unwind label %18

16:                                               ; preds = %.lr.ph
  %17 = tail call noundef ptr @_ZSt18_Rb_tree_incrementPKSt18_Rb_tree_node_base(ptr noundef nonnull %.sroa.08.013) #32
  %.not = icmp eq ptr %17, %12
  br i1 %.not, label %._crit_edge, label %.lr.ph, !llvm.loop !42

18:                                               ; preds = %.lr.ph
  %19 = landingpad { ptr, i32 }
          cleanup
  br label %23

20:                                               ; preds = %._crit_edge
  ret void

21:                                               ; preds = %._crit_edge
  %22 = landingpad { ptr, i32 }
          cleanup
  br label %23

23:                                               ; preds = %21, %18
  %.pn = phi { ptr, i32 } [ %19, %18 ], [ %22, %21 ]
  tail call void @_ZNSt3mapIN7Imf_3_44NameEPNS0_9AttributeESt4lessIS1_ESaISt4pairIKS1_S3_EEED2Ev(ptr noundef nonnull align 8 dereferenceable(48) %0) #29
  resume { ptr, i32 } %.pn
}